; Function Attrs: mustprogress nounwind uwtable
define internal void @"_ZNSt17_Function_handlerIFvRN5clang4ento22PathSensitiveBugReportERN4llvm11raw_ostreamEEZNK12_GLOBAL__N_116SmartPtrModeling8evalCallERKNS1_9CallEventERNS1_14CheckerContextEE3$_0E9_M_invokeERKSt9_Any_dataS3_S6_"(ptr nocapture noundef nonnull readonly align 8 dereferenceable(16) %0, ptr noundef nonnull align 8 dereferenceable(1016) %1, ptr noundef nonnull align 8 dereferenceable(48) %2) #0 align 2 {
  %4 = getelementptr inbounds nuw i8, ptr %1, i64 16
  %5 = load ptr, ptr %4, align 8
  %6 = tail call noundef ptr @_ZN5clang4ento8smartptr25getNullDereferenceBugTypeEv() #17
  %.not.i.i.i = icmp eq ptr %5, %6
  br i1 %.not.i.i.i, label %7, label %"_ZSt10__invoke_rIvRZNK12_GLOBAL__N_116SmartPtrModeling8evalCallERKN5clang4ento9CallEventERNS3_14CheckerContextEE3$_0JRNS3_22PathSensitiveBugReportERN4llvm11raw_ostreamEEENSt9enable_ifIX16is_invocable_r_vIT_T0_DpT1_EESH_E4typeEOSI_DpOSJ_.exit"

7:                                                ; preds = %3
  %8 = load ptr, ptr %0, align 8
  %9 = tail call noundef zeroext i1 @_ZNK5clang4ento22PathSensitiveBugReport13isInterestingEPKNS0_9MemRegionE(ptr noundef nonnull align 8 dereferenceable(1016) %1, ptr noundef %8) #17
  br i1 %9, label %10, label %"_ZSt10__invoke_rIvRZNK12_GLOBAL__N_116SmartPtrModeling8evalCallERKN5clang4ento9CallEventERNS3_14CheckerContextEE3$_0JRNS3_22PathSensitiveBugReportERN4llvm11raw_ostreamEEENSt9enable_ifIX16is_invocable_r_vIT_T0_DpT1_EESH_E4typeEOSI_DpOSJ_.exit"

10:                                               ; preds = %7
  %11 = getelementptr inbounds nuw i8, ptr %2, i64 24
  %12 = load ptr, ptr %11, align 8
  %13 = getelementptr inbounds nuw i8, ptr %2, i64 32
  %14 = load ptr, ptr %13, align 8
  %15 = ptrtoint ptr %12 to i64
  %16 = ptrtoint ptr %14 to i64
  %17 = sub i64 %15, %16
  %18 = icmp ult i64 %17, 33
  br i1 %18, label %19, label %21

19:                                               ; preds = %10
  %20 = tail call noundef nonnull align 8 dereferenceable(48) ptr @_ZN4llvm11raw_ostream5writeEPKcm(ptr noundef nonnull align 8 dereferenceable(48) %2, ptr noundef nonnull @.str.34, i64 noundef 33) #17
  br label %_ZN4llvm11raw_ostreamlsEPKc.exit.i.i.i

21:                                               ; preds = %10
  tail call void @llvm.memcpy.p0.p0.i64(ptr noundef nonnull align 1 dereferenceable(33) %14, ptr noundef nonnull align 1 dereferenceable(33) @.str.34, i64 33, i1 false)
  %22 = load ptr, ptr %13, align 8
  %23 = getelementptr inbounds i8, ptr %22, i64 33
  store ptr %23, ptr %13, align 8
  br label %_ZN4llvm11raw_ostreamlsEPKc.exit.i.i.i

_ZN4llvm11raw_ostreamlsEPKc.exit.i.i.i:           ; preds = %21, %19
  %24 = load ptr, ptr %0, align 8
  %25 = load ptr, ptr %24, align 8
  %26 = getelementptr inbounds i8, ptr %25, i64 48
  %27 = load ptr, ptr %26, align 8
  %28 = tail call noundef zeroext i1 %27(ptr noundef nonnull align 8 dereferenceable(48) %24) #17
  br i1 %28, label %29, label %_ZL25checkAndPrettyPrintRegionRN4llvm11raw_ostreamEPKN5clang4ento9MemRegionE.exit.i.i.i

29:                                               ; preds = %_ZN4llvm11raw_ostreamlsEPKc.exit.i.i.i
  %30 = load ptr, ptr %11, align 8
  %31 = load ptr, ptr %13, align 8
  %32 = icmp eq ptr %30, %31
  br i1 %32, label %33, label %35

33:                                               ; preds = %29
  %34 = tail call noundef nonnull align 8 dereferenceable(48) ptr @_ZN4llvm11raw_ostream5writeEPKcm(ptr noundef nonnull align 8 dereferenceable(48) %2, ptr noundef nonnull @.str.22, i64 noundef 1) #17
  br label %_ZN4llvm11raw_ostreamlsEPKc.exit.i.i.i.i

35:                                               ; preds = %29
  store i8 32, ptr %31, align 1
  %36 = load ptr, ptr %13, align 8
  %37 = getelementptr inbounds i8, ptr %36, i64 1
  store ptr %37, ptr %13, align 8
  br label %_ZN4llvm11raw_ostreamlsEPKc.exit.i.i.i.i

_ZN4llvm11raw_ostreamlsEPKc.exit.i.i.i.i:         ; preds = %35, %33
  %38 = load ptr, ptr %24, align 8
  %39 = getelementptr inbounds i8, ptr %38, i64 56
  %40 = load ptr, ptr %39, align 8
  tail call void %40(ptr noundef nonnull align 8 dereferenceable(48) %24, ptr noundef nonnull align 8 dereferenceable(48) %2) #17
  br label %_ZL25checkAndPrettyPrintRegionRN4llvm11raw_ostreamEPKN5clang4ento9MemRegionE.exit.i.i.i

_ZL25checkAndPrettyPrintRegionRN4llvm11raw_ostreamEPKN5clang4ento9MemRegionE.exit.i.i.i: ; preds = %_ZN4llvm11raw_ostreamlsEPKc.exit.i.i.i.i, %_ZN4llvm11raw_ostreamlsEPKc.exit.i.i.i
  %41 = load ptr, ptr %11, align 8
  %42 = load ptr, ptr %13, align 8
  %43 = ptrtoint ptr %41 to i64
  %44 = ptrtoint ptr %42 to i64
  %45 = sub i64 %43, %44
  %46 = icmp ult i64 %45, 8
  br i1 %46, label %47, label %49

47:                                               ; preds = %_ZL25checkAndPrettyPrintRegionRN4llvm11raw_ostreamEPKN5clang4ento9MemRegionE.exit.i.i.i
  %48 = tail call noundef nonnull align 8 dereferenceable(48) ptr @_ZN4llvm11raw_ostream5writeEPKcm(ptr noundef nonnull align 8 dereferenceable(48) %2, ptr noundef nonnull @.str.29, i64 noundef 8) #17
  br label %"_ZSt10__invoke_rIvRZNK12_GLOBAL__N_116SmartPtrModeling8evalCallERKN5clang4ento9CallEventERNS3_14CheckerContextEE3$_0JRNS3_22PathSensitiveBugReportERN4llvm11raw_ostreamEEENSt9enable_ifIX16is_invocable_r_vIT_T0_DpT1_EESH_E4typeEOSI_DpOSJ_.exit"

49:                                               ; preds = %_ZL25checkAndPrettyPrintRegionRN4llvm11raw_ostreamEPKN5clang4ento9MemRegionE.exit.i.i.i
  store i64 7812748569432254752, ptr %42, align 1
  %50 = load ptr, ptr %13, align 8
  %51 = getelementptr inbounds i8, ptr %50, i64 8
  store ptr %51, ptr %13, align 8
  br label %"_ZSt10__invoke_rIvRZNK12_GLOBAL__N_116SmartPtrModeling8evalCallERKN5clang4ento9CallEventERNS3_14CheckerContextEE3$_0JRNS3_22PathSensitiveBugReportERN4llvm11raw_ostreamEEENSt9enable_ifIX16is_invocable_r_vIT_T0_DpT1_EESH_E4typeEOSI_DpOSJ_.exit"

"_ZSt10__invoke_rIvRZNK12_GLOBAL__N_116SmartPtrModeling8evalCallERKN5clang4ento9CallEventERNS3_14CheckerContextEE3$_0JRNS3_22PathSensitiveBugReportERN4llvm11raw_ostreamEEENSt9enable_ifIX16is_invocable_r_vIT_T0_DpT1_EESH_E4typeEOSI_DpOSJ_.exit": ; preds = %3, %7, %47, %49
  ret void
}